target datalayout = "e-m:e-p270:32:32-p271:32:32-p272:64:64-i64:64-i128:128-f80:128-n8:16:32:64-S128"
target triple = "x86_64-pc-linux-gnu"

%struct.VP8LBackwardRefs = type { i32, i32, ptr, ptr, ptr, ptr }
%struct.PixOrCopyBlock = type { ptr, ptr, i32 }
%struct.PixOrCopy = type { i8, i16, i32 }

; Function Attrs: nounwind uwtable
define internal ptr @BackwardRefsNewBlock(ptr noundef %0) #0 {
  %2 = alloca ptr, align 8
  %3 = alloca ptr, align 8
  %4 = alloca ptr, align 8
  %5 = alloca i64, align 8
  %6 = alloca i32, align 4
  store ptr %0, ptr %3, align 8, !tbaa !8
  call void @llvm.lifetime.start.p0(i64 8, ptr %4) #7
  %7 = load ptr, ptr %3, align 8, !tbaa !8
  %8 = getelementptr inbounds nuw %struct.VP8LBackwardRefs, ptr %7, i32 0, i32 4
  %9 = load ptr, ptr %8, align 8, !tbaa !15
  store ptr %9, ptr %4, align 8, !tbaa !16
  %10 = load ptr, ptr %4, align 8, !tbaa !16
  %11 = icmp eq ptr %10, null
  br i1 %11, label %12, label %36

12:                                               ; preds = %1
  call void @llvm.lifetime.start.p0(i64 8, ptr %5) #7
  %13 = load ptr, ptr %3, align 8, !tbaa !8
  %14 = getelementptr inbounds nuw %struct.VP8LBackwardRefs, ptr %13, i32 0, i32 0
  %15 = load i32, ptr %14, align 8, !tbaa !23
  %16 = sext i32 %15 to i64
  %17 = mul i64 %16, 8
  %18 = add i64 24, %17
  store i64 %18, ptr %5, align 8, !tbaa !34
  %19 = load i64, ptr %5, align 8, !tbaa !34
  %20 = call ptr @WebPSafeMalloc(i64 noundef 1, i64 noundef %19)
  store ptr %20, ptr %4, align 8, !tbaa !16
  %21 = load ptr, ptr %4, align 8, !tbaa !16
  %22 = icmp eq ptr %21, null
  br i1 %22, label %23, label %28

23:                                               ; preds = %12
  %24 = load ptr, ptr %3, align 8, !tbaa !8
  %25 = getelementptr inbounds nuw %struct.VP8LBackwardRefs, ptr %24, i32 0, i32 1
  %26 = load i32, ptr %25, align 4, !tbaa !36
  %27 = or i32 %26, 1
  store i32 %27, ptr %25, align 4, !tbaa !36
  store ptr null, ptr %2, align 8
  store i32 1, ptr %6, align 4
  br label %33

28:                                               ; preds = %12
  %29 = load ptr, ptr %4, align 8, !tbaa !16
  %30 = getelementptr inbounds nuw i8, ptr %29, i64 24
  %31 = load ptr, ptr %4, align 8, !tbaa !16
  %32 = getelementptr inbounds nuw %struct.PixOrCopyBlock, ptr %31, i32 0, i32 1
  store ptr %30, ptr %32, align 8, !tbaa !26
  store i32 0, ptr %6, align 4
  br label %33

33:                                               ; preds = %28, %23
  call void @llvm.lifetime.end.p0(i64 8, ptr %5) #7
  %34 = load i32, ptr %6, align 4
  switch i32 %34, label %59 [
    i32 0, label %35
  ]

35:                                               ; preds = %33
  br label %42

36:                                               ; preds = %1
  %37 = load ptr, ptr %4, align 8, !tbaa !16
  %38 = getelementptr inbounds nuw %struct.PixOrCopyBlock, ptr %37, i32 0, i32 0
  %39 = load ptr, ptr %38, align 8, !tbaa !19
  %40 = load ptr, ptr %3, align 8, !tbaa !8
  %41 = getelementptr inbounds nuw %struct.VP8LBackwardRefs, ptr %40, i32 0, i32 4
  store ptr %39, ptr %41, align 8, !tbaa !15
  br label %42

42:                                               ; preds = %36, %35
  %43 = load ptr, ptr %4, align 8, !tbaa !16
  %44 = load ptr, ptr %3, align 8, !tbaa !8
  %45 = getelementptr inbounds nuw %struct.VP8LBackwardRefs, ptr %44, i32 0, i32 3
  %46 = load ptr, ptr %45, align 8, !tbaa !11
  store ptr %43, ptr %46, align 8, !tbaa !16
  %47 = load ptr, ptr %4, align 8, !tbaa !16
  %48 = getelementptr inbounds nuw %struct.PixOrCopyBlock, ptr %47, i32 0, i32 0
  %49 = load ptr, ptr %3, align 8, !tbaa !8
  %50 = getelementptr inbounds nuw %struct.VP8LBackwardRefs, ptr %49, i32 0, i32 3
  store ptr %48, ptr %50, align 8, !tbaa !11
  %51 = load ptr, ptr %4, align 8, !tbaa !16
  %52 = load ptr, ptr %3, align 8, !tbaa !8
  %53 = getelementptr inbounds nuw %struct.VP8LBackwardRefs, ptr %52, i32 0, i32 5
  store ptr %51, ptr %53, align 8, !tbaa !18
  %54 = load ptr, ptr %4, align 8, !tbaa !16
  %55 = getelementptr inbounds nuw %struct.PixOrCopyBlock, ptr %54, i32 0, i32 0
  store ptr null, ptr %55, align 8, !tbaa !19
  %56 = load ptr, ptr %4, align 8, !tbaa !16
  %57 = getelementptr inbounds nuw %struct.PixOrCopyBlock, ptr %56, i32 0, i32 2
  store i32 0, ptr %57, align 8, !tbaa !28
  %58 = load ptr, ptr %4, align 8, !tbaa !16
  store ptr %58, ptr %2, align 8
  store i32 1, ptr %6, align 4
  br label %59

59:                                               ; preds = %42, %33
  call void @llvm.lifetime.end.p0(i64 8, ptr %4) #7
  %60 = load ptr, ptr %2, align 8
  ret ptr %60
}

; Function Attrs: nounwind uwtable
define hidden void @VP8LBackwardRefsCursorAdd(ptr noundef %0, i64 %1) #0 {
  %3 = alloca %struct.PixOrCopy, align 4
  %4 = alloca ptr, align 8
  %5 = alloca ptr, align 8
  %6 = alloca i32, align 4
  store i64 %1, ptr %3, align 4
  store ptr %0, ptr %4, align 8, !tbaa !8
  call void @llvm.lifetime.start.p0(i64 8, ptr %5) #7
  %7 = load ptr, ptr %4, align 8, !tbaa !8
  %8 = getelementptr inbounds nuw %struct.VP8LBackwardRefs, ptr %7, i32 0, i32 5
  %9 = load ptr, ptr %8, align 8, !tbaa !18
  store ptr %9, ptr %5, align 8, !tbaa !16
  %10 = load ptr, ptr %5, align 8, !tbaa !16
  %11 = icmp eq ptr %10, null
  br i1 %11, label %20, label %12

12:                                               ; preds = %2
  %13 = load ptr, ptr %5, align 8, !tbaa !16
  %14 = getelementptr inbounds nuw %struct.PixOrCopyBlock, ptr %13, i32 0, i32 2
  %15 = load i32, ptr %14, align 8, !tbaa !28
  %16 = load ptr, ptr %4, align 8, !tbaa !8
  %17 = getelementptr inbounds nuw %struct.VP8LBackwardRefs, ptr %16, i32 0, i32 0
  %18 = load i32, ptr %17, align 8, !tbaa !23
  %19 = icmp eq i32 %15, %18
  br i1 %19, label %20, label %27

20:                                               ; preds = %12, %2
  %21 = load ptr, ptr %4, align 8, !tbaa !8
  %22 = call ptr @BackwardRefsNewBlock(ptr noundef %21)
  store ptr %22, ptr %5, align 8, !tbaa !16
  %23 = load ptr, ptr %5, align 8, !tbaa !16
  %24 = icmp eq ptr %23, null
  br i1 %24, label %25, label %26

25:                                               ; preds = %20
  store i32 1, ptr %6, align 4
  br label %37

26:                                               ; preds = %20
  br label %27

27:                                               ; preds = %26, %12
  %28 = load ptr, ptr %5, align 8, !tbaa !16
  %29 = getelementptr inbounds nuw %struct.PixOrCopyBlock, ptr %28, i32 0, i32 1
  %30 = load ptr, ptr %29, align 8, !tbaa !26
  %31 = load ptr, ptr %5, align 8, !tbaa !16
  %32 = getelementptr inbounds nuw %struct.PixOrCopyBlock, ptr %31, i32 0, i32 2
  %33 = load i32, ptr %32, align 8, !tbaa !28
  %34 = add nsw i32 %33, 1
  store i32 %34, ptr %32, align 8, !tbaa !28
  %35 = sext i32 %33 to i64
  %36 = getelementptr inbounds %struct.PixOrCopy, ptr %30, i64 %35
  call void @llvm.memcpy.p0.p0.i64(ptr align 4 %36, ptr align 4 %3, i64 8, i1 false), !tbaa.struct !31
  store i32 0, ptr %6, align 4
  br label %37

37:                                               ; preds = %27, %25
  call void @llvm.lifetime.end.p0(i64 8, ptr %5) #7
  %38 = load i32, ptr %6, align 4
  switch i32 %38, label %40 [
    i32 0, label %39
    i32 1, label %39
  ]

39:                                               ; preds = %37, %37
  ret void

40:                                               ; preds = %37
  unreachable
}