; Function Attrs: nounwind uwtable
define hidden void @VP8LBackwardRefsCursorAdd(ptr noundef captures(none) %0, i64 %1) local_unnamed_addr #3 {
  %3 = getelementptr inbounds nuw i8, ptr %0, i64 32
  %4 = load ptr, ptr %3, align 8, !tbaa !15
  %5 = icmp eq ptr %4, null
  br i1 %5, label %11, label %6

6:                                                ; preds = %2
  %7 = getelementptr inbounds nuw i8, ptr %4, i64 16
  %8 = load i32, ptr %7, align 8, !tbaa !24
  %9 = load i32, ptr %0, align 8, !tbaa !20
  %10 = icmp eq i32 %8, %9
  br i1 %10, label %11, label %32

11:                                               ; preds = %6, %2
  %12 = getelementptr inbounds nuw i8, ptr %0, i64 24
  %13 = load ptr, ptr %12, align 8, !tbaa !12
  %14 = icmp eq ptr %13, null
  br i1 %14, label %15, label %27

15:                                               ; preds = %11
  %16 = load i32, ptr %0, align 8, !tbaa !20
  %17 = sext i32 %16 to i64
  %18 = shl nsw i64 %17, 3
  %19 = add nsw i64 %18, 24
  %20 = tail call ptr @WebPSafeMalloc(i64 noundef 1, i64 noundef %19) #11
  %.not.i = icmp eq ptr %20, null
  br i1 %.not.i, label %BackwardRefsNewBlock.exit.thread, label %24

BackwardRefsNewBlock.exit.thread:                 ; preds = %15
  %21 = getelementptr inbounds nuw i8, ptr %0, i64 4
  %22 = load i32, ptr %21, align 4, !tbaa !27
  %23 = or i32 %22, 1
  store i32 %23, ptr %21, align 4, !tbaa !27
  br label %40

24:                                               ; preds = %15
  %25 = getelementptr inbounds nuw i8, ptr %20, i64 24
  %26 = getelementptr inbounds nuw i8, ptr %20, i64 8
  store ptr %25, ptr %26, align 8, !tbaa !23
  br label %BackwardRefsNewBlock.exit

27:                                               ; preds = %11
  %28 = load ptr, ptr %13, align 8, !tbaa !16
  store ptr %28, ptr %12, align 8, !tbaa !12
  br label %BackwardRefsNewBlock.exit

BackwardRefsNewBlock.exit:                        ; preds = %24, %27
  %.021.i = phi ptr [ %20, %24 ], [ %13, %27 ]
  %29 = getelementptr inbounds nuw i8, ptr %0, i64 16
  %30 = load ptr, ptr %29, align 8, !tbaa !6
  store ptr %.021.i, ptr %30, align 8, !tbaa !13
  store ptr %.021.i, ptr %29, align 8, !tbaa !6
  store ptr %.021.i, ptr %3, align 8, !tbaa !15
  store ptr null, ptr %.021.i, align 8, !tbaa !16
  %31 = getelementptr inbounds nuw i8, ptr %.021.i, i64 16
  store i32 0, ptr %31, align 8, !tbaa !24
  br label %32

32:                                               ; preds = %BackwardRefsNewBlock.exit, %6
  %33 = phi i32 [ 0, %BackwardRefsNewBlock.exit ], [ %8, %6 ]
  %.0 = phi ptr [ %.021.i, %BackwardRefsNewBlock.exit ], [ %4, %6 ]
  %34 = getelementptr inbounds nuw i8, ptr %.0, i64 8
  %35 = load ptr, ptr %34, align 8, !tbaa !23
  %36 = getelementptr inbounds nuw i8, ptr %.0, i64 16
  %37 = add nsw i32 %33, 1
  store i32 %37, ptr %36, align 8, !tbaa !24
  %38 = sext i32 %33 to i64
  %39 = getelementptr inbounds %struct.PixOrCopy, ptr %35, i64 %38
  store i64 %1, ptr %39, align 4
  br label %40

40:                                               ; preds = %BackwardRefsNewBlock.exit.thread, %32
  ret void
}